target datalayout = "e-m:e-p270:32:32-p271:32:32-p272:64:64-i64:64-i128:128-f80:128-n8:16:32:64-S128"
target triple = "x86_64-pc-linux-gnu"

%struct.KINMemRec = type { double, ptr, ptr, double, double, i32, i32, i64, i64, i64, i64, i32, i32, i32, i32, i32, i32, i32, i32, i32, double, double, double, double, double, double, double, double, double, i32, double, i64, i64, i64, i64, i64, i64, i64, ptr, ptr, ptr, ptr, ptr, ptr, ptr, ptr, ptr, ptr, ptr, ptr, ptr, ptr, ptr, ptr, ptr, ptr, i64, i32, i32, i64, i64, i64, i64, ptr, ptr, ptr, ptr, i32, ptr, double, double, double, double, double, i32, double, double, double, i32, ptr, ptr, ptr, ptr, ptr, ptr }
%struct.KINDlsMemRec = type { i32, i64, i64, i64, i64, i32, ptr, ptr, ptr, ptr, ptr, ptr, i64, i64, i64 }
%struct._DlsMat = type { i32, i64, i64, i64, i64, i64, i64, ptr, i64, ptr }

; Function Attrs: nounwind uwtable
define i32 @kinDlsDenseDQJac(i64 noundef %0, ptr noundef %1, ptr noundef %2, ptr noundef %3, ptr noundef %4, ptr noundef %5, ptr noundef %6) #0 {
  %8 = alloca i64, align 8
  %9 = alloca ptr, align 8
  %10 = alloca ptr, align 8
  %11 = alloca ptr, align 8
  %12 = alloca ptr, align 8
  %13 = alloca ptr, align 8
  %14 = alloca ptr, align 8
  %15 = alloca double, align 8
  %16 = alloca double, align 8
  %17 = alloca double, align 8
  %18 = alloca double, align 8
  %19 = alloca double, align 8
  %20 = alloca ptr, align 8
  %21 = alloca ptr, align 8
  %22 = alloca ptr, align 8
  %23 = alloca ptr, align 8
  %24 = alloca ptr, align 8
  %25 = alloca i32, align 4
  %26 = alloca i64, align 8
  %27 = alloca ptr, align 8
  %28 = alloca ptr, align 8
  store i64 %0, ptr %8, align 8, !tbaa !30
  store ptr %1, ptr %9, align 8, !tbaa !39
  store ptr %2, ptr %10, align 8, !tbaa !39
  store ptr %3, ptr %11, align 8, !tbaa !40
  store ptr %4, ptr %12, align 8, !tbaa !3
  store ptr %5, ptr %13, align 8, !tbaa !39
  store ptr %6, ptr %14, align 8, !tbaa !39
  call void @llvm.lifetime.start.p0(i64 8, ptr %15) #5
  call void @llvm.lifetime.start.p0(i64 8, ptr %16) #5
  call void @llvm.lifetime.start.p0(i64 8, ptr %17) #5
  call void @llvm.lifetime.start.p0(i64 8, ptr %18) #5
  call void @llvm.lifetime.start.p0(i64 8, ptr %19) #5
  call void @llvm.lifetime.start.p0(i64 8, ptr %20) #5
  call void @llvm.lifetime.start.p0(i64 8, ptr %21) #5
  call void @llvm.lifetime.start.p0(i64 8, ptr %22) #5
  call void @llvm.lifetime.start.p0(i64 8, ptr %23) #5
  call void @llvm.lifetime.start.p0(i64 8, ptr %24) #5
  call void @llvm.lifetime.start.p0(i64 4, ptr %25) #5
  store i32 0, ptr %25, align 4, !tbaa !41
  call void @llvm.lifetime.start.p0(i64 8, ptr %26) #5
  call void @llvm.lifetime.start.p0(i64 8, ptr %27) #5
  call void @llvm.lifetime.start.p0(i64 8, ptr %28) #5
  %29 = load ptr, ptr %12, align 8, !tbaa !3
  store ptr %29, ptr %27, align 8, !tbaa !7
  %30 = load ptr, ptr %27, align 8, !tbaa !7
  %31 = getelementptr inbounds nuw %struct.KINMemRec, ptr %30, i32 0, i32 68
  %32 = load ptr, ptr %31, align 8, !tbaa !9
  store ptr %32, ptr %28, align 8, !tbaa !18
  %33 = load ptr, ptr %14, align 8, !tbaa !39
  %34 = call ptr @N_VGetArrayPointer(ptr noundef %33)
  store ptr %34, ptr %20, align 8, !tbaa !42
  %35 = load ptr, ptr %13, align 8, !tbaa !39
  store ptr %35, ptr %23, align 8, !tbaa !39
  %36 = load ptr, ptr %14, align 8, !tbaa !39
  store ptr %36, ptr %24, align 8, !tbaa !39
  %37 = load ptr, ptr %9, align 8, !tbaa !39
  %38 = call ptr @N_VGetArrayPointer(ptr noundef %37)
  store ptr %38, ptr %21, align 8, !tbaa !42
  %39 = load ptr, ptr %27, align 8, !tbaa !7
  %40 = getelementptr inbounds nuw %struct.KINMemRec, ptr %39, i32 0, i32 42
  %41 = load ptr, ptr %40, align 8, !tbaa !43
  %42 = call ptr @N_VGetArrayPointer(ptr noundef %41)
  store ptr %42, ptr %22, align 8, !tbaa !42
  store i64 0, ptr %26, align 8, !tbaa !30
  br label %43

43:                                               ; preds = %119, %7
  %44 = load i64, ptr %26, align 8, !tbaa !30
  %45 = load i64, ptr %8, align 8, !tbaa !30
  %46 = icmp slt i64 %44, %45
  br i1 %46, label %47, label %122

47:                                               ; preds = %43
  %48 = load ptr, ptr %11, align 8, !tbaa !40
  %49 = getelementptr inbounds nuw %struct._DlsMat, ptr %48, i32 0, i32 9
  %50 = load ptr, ptr %49, align 8, !tbaa !44
  %51 = load i64, ptr %26, align 8, !tbaa !30
  %52 = getelementptr inbounds ptr, ptr %50, i64 %51
  %53 = load ptr, ptr %52, align 8, !tbaa !42
  %54 = load ptr, ptr %24, align 8, !tbaa !39
  call void @N_VSetArrayPointer(ptr noundef %53, ptr noundef %54)
  %55 = load ptr, ptr %21, align 8, !tbaa !42
  %56 = load i64, ptr %26, align 8, !tbaa !30
  %57 = getelementptr inbounds double, ptr %55, i64 %56
  %58 = load double, ptr %57, align 8, !tbaa !47
  store double %58, ptr %17, align 8, !tbaa !47
  %59 = load ptr, ptr %22, align 8, !tbaa !42
  %60 = load i64, ptr %26, align 8, !tbaa !30
  %61 = getelementptr inbounds double, ptr %59, i64 %60
  %62 = load double, ptr %61, align 8, !tbaa !47
  %63 = fdiv double 1.000000e+00, %62
  store double %63, ptr %18, align 8, !tbaa !47
  %64 = load double, ptr %17, align 8, !tbaa !47
  %65 = fcmp oge double %64, 0.000000e+00
  %66 = select i1 %65, double 1.000000e+00, double -1.000000e+00
  store double %66, ptr %19, align 8, !tbaa !47
  %67 = load ptr, ptr %27, align 8, !tbaa !7
  %68 = getelementptr inbounds nuw %struct.KINMemRec, ptr %67, i32 0, i32 22
  %69 = load double, ptr %68, align 8, !tbaa !48
  %70 = load double, ptr %17, align 8, !tbaa !47
  %71 = call double @SUNRabs(double noundef %70)
  %72 = load double, ptr %18, align 8, !tbaa !47
  %73 = fcmp ogt double %71, %72
  br i1 %73, label %74, label %77

74:                                               ; preds = %47
  %75 = load double, ptr %17, align 8, !tbaa !47
  %76 = call double @SUNRabs(double noundef %75)
  br label %79

77:                                               ; preds = %47
  %78 = load double, ptr %18, align 8, !tbaa !47
  br label %79

79:                                               ; preds = %77, %74
  %80 = phi double [ %76, %74 ], [ %78, %77 ]
  %81 = fmul double %69, %80
  %82 = load double, ptr %19, align 8, !tbaa !47
  %83 = fmul double %81, %82
  store double %83, ptr %15, align 8, !tbaa !47
  %84 = load double, ptr %15, align 8, !tbaa !47
  %85 = load ptr, ptr %21, align 8, !tbaa !42
  %86 = load i64, ptr %26, align 8, !tbaa !30
  %87 = getelementptr inbounds double, ptr %85, i64 %86
  %88 = load double, ptr %87, align 8, !tbaa !47
  %89 = fadd double %88, %84
  store double %89, ptr %87, align 8, !tbaa !47
  %90 = load ptr, ptr %27, align 8, !tbaa !7
  %91 = getelementptr inbounds nuw %struct.KINMemRec, ptr %90, i32 0, i32 1
  %92 = load ptr, ptr %91, align 8, !tbaa !49
  %93 = load ptr, ptr %9, align 8, !tbaa !39
  %94 = load ptr, ptr %23, align 8, !tbaa !39
  %95 = load ptr, ptr %27, align 8, !tbaa !7
  %96 = getelementptr inbounds nuw %struct.KINMemRec, ptr %95, i32 0, i32 2
  %97 = load ptr, ptr %96, align 8, !tbaa !50
  %98 = call i32 %92(ptr noundef %93, ptr noundef %94, ptr noundef %97)
  store i32 %98, ptr %25, align 4, !tbaa !41
  %99 = load ptr, ptr %28, align 8, !tbaa !18
  %100 = getelementptr inbounds nuw %struct.KINDlsMemRec, ptr %99, i32 0, i32 13
  %101 = load i64, ptr %100, align 8, !tbaa !35
  %102 = add nsw i64 %101, 1
  store i64 %102, ptr %100, align 8, !tbaa !35
  %103 = load i32, ptr %25, align 4, !tbaa !41
  %104 = icmp ne i32 %103, 0
  br i1 %104, label %105, label %106

105:                                              ; preds = %79
  br label %122

106:                                              ; preds = %79
  %107 = load double, ptr %17, align 8, !tbaa !47
  %108 = load ptr, ptr %21, align 8, !tbaa !42
  %109 = load i64, ptr %26, align 8, !tbaa !30
  %110 = getelementptr inbounds double, ptr %108, i64 %109
  store double %107, ptr %110, align 8, !tbaa !47
  %111 = load double, ptr %15, align 8, !tbaa !47
  %112 = fdiv double 1.000000e+00, %111
  store double %112, ptr %16, align 8, !tbaa !47
  %113 = load double, ptr %16, align 8, !tbaa !47
  %114 = load ptr, ptr %23, align 8, !tbaa !39
  %115 = load double, ptr %16, align 8, !tbaa !47
  %116 = fneg double %115
  %117 = load ptr, ptr %10, align 8, !tbaa !39
  %118 = load ptr, ptr %24, align 8, !tbaa !39
  call void @N_VLinearSum(double noundef %113, ptr noundef %114, double noundef %116, ptr noundef %117, ptr noundef %118)
  br label %119

119:                                              ; preds = %106
  %120 = load i64, ptr %26, align 8, !tbaa !30
  %121 = add nsw i64 %120, 1
  store i64 %121, ptr %26, align 8, !tbaa !30
  br label %43, !llvm.loop !51

122:                                              ; preds = %105, %43
  %123 = load ptr, ptr %20, align 8, !tbaa !42
  %124 = load ptr, ptr %14, align 8, !tbaa !39
  call void @N_VSetArrayPointer(ptr noundef %123, ptr noundef %124)
  %125 = load i32, ptr %25, align 4, !tbaa !41
  call void @llvm.lifetime.end.p0(i64 8, ptr %28) #5
  call void @llvm.lifetime.end.p0(i64 8, ptr %27) #5
  call void @llvm.lifetime.end.p0(i64 8, ptr %26) #5
  call void @llvm.lifetime.end.p0(i64 4, ptr %25) #5
  call void @llvm.lifetime.end.p0(i64 8, ptr %24) #5
  call void @llvm.lifetime.end.p0(i64 8, ptr %23) #5
  call void @llvm.lifetime.end.p0(i64 8, ptr %22) #5
  call void @llvm.lifetime.end.p0(i64 8, ptr %21) #5
  call void @llvm.lifetime.end.p0(i64 8, ptr %20) #5
  call void @llvm.lifetime.end.p0(i64 8, ptr %19) #5
  call void @llvm.lifetime.end.p0(i64 8, ptr %18) #5
  call void @llvm.lifetime.end.p0(i64 8, ptr %17) #5
  call void @llvm.lifetime.end.p0(i64 8, ptr %16) #5
  call void @llvm.lifetime.end.p0(i64 8, ptr %15) #5
  ret i32 %125
}