; Function Attrs: nounwind uwtable
define i32 @kinDlsDenseDQJac(i64 noundef %0, ptr noundef %1, ptr noundef %2, ptr noundef readonly captures(none) %3, ptr noundef readonly captures(none) %4, ptr noundef %5, ptr noundef %6) local_unnamed_addr #0 {
  %8 = getelementptr inbounds nuw i8, ptr %4, i64 496
  %9 = load ptr, ptr %8, align 8, !tbaa !3
  %10 = tail call ptr @N_VGetArrayPointer(ptr noundef %6) #6
  %11 = tail call ptr @N_VGetArrayPointer(ptr noundef %1) #6
  %12 = getelementptr inbounds nuw i8, ptr %4, i64 296
  %13 = load ptr, ptr %12, align 8, !tbaa !31
  %14 = tail call ptr @N_VGetArrayPointer(ptr noundef %13) #6
  %15 = icmp sgt i64 %0, 0
  br i1 %15, label %.lr.ph, label %._crit_edge

.lr.ph:                                           ; preds = %7
  %16 = getelementptr inbounds nuw i8, ptr %3, i64 72
  %17 = getelementptr inbounds nuw i8, ptr %4, i64 136
  %18 = getelementptr inbounds nuw i8, ptr %4, i64 8
  %19 = getelementptr inbounds nuw i8, ptr %4, i64 16
  %20 = getelementptr inbounds nuw i8, ptr %9, i64 104
  br label %21

21:                                               ; preds = %.lr.ph, %48
  %.04448 = phi i64 [ 0, %.lr.ph ], [ %51, %48 ]
  %22 = load ptr, ptr %16, align 8, !tbaa !32
  %23 = getelementptr inbounds nuw ptr, ptr %22, i64 %.04448
  %24 = load ptr, ptr %23, align 8, !tbaa !35
  tail call void @N_VSetArrayPointer(ptr noundef %24, ptr noundef %6) #6
  %25 = getelementptr inbounds nuw double, ptr %11, i64 %.04448
  %26 = load double, ptr %25, align 8, !tbaa !36
  %27 = getelementptr inbounds nuw double, ptr %14, i64 %.04448
  %28 = load double, ptr %27, align 8, !tbaa !36
  %29 = fdiv double 1.000000e+00, %28
  %30 = fcmp oge double %26, 0.000000e+00
  %31 = load double, ptr %17, align 8, !tbaa !37
  %32 = tail call double @SUNRabs(double noundef %26) #6
  %33 = fcmp ogt double %32, %29
  br i1 %33, label %34, label %36

34:                                               ; preds = %21
  %35 = tail call double @SUNRabs(double noundef %26) #6
  br label %36

36:                                               ; preds = %21, %34
  %37 = phi double [ %35, %34 ], [ %29, %21 ]
  %38 = fmul double %31, %37
  %39 = fneg double %38
  %40 = select i1 %30, double %38, double %39
  %41 = load double, ptr %25, align 8, !tbaa !36
  %42 = fadd double %41, %40
  store double %42, ptr %25, align 8, !tbaa !36
  %43 = load ptr, ptr %18, align 8, !tbaa !38
  %44 = load ptr, ptr %19, align 8, !tbaa !39
  %45 = tail call i32 %43(ptr noundef %1, ptr noundef %5, ptr noundef %44) #6
  %46 = load i64, ptr %20, align 8, !tbaa !29
  %47 = add nsw i64 %46, 1
  store i64 %47, ptr %20, align 8, !tbaa !29
  %.not = icmp eq i32 %45, 0
  br i1 %.not, label %48, label %._crit_edge

48:                                               ; preds = %36
  store double %26, ptr %25, align 8, !tbaa !36
  %49 = fdiv double 1.000000e+00, %40
  %50 = fneg double %49
  tail call void @N_VLinearSum(double noundef %49, ptr noundef %5, double noundef %50, ptr noundef %2, ptr noundef %6) #6
  %51 = add nuw nsw i64 %.04448, 1
  %exitcond.not = icmp eq i64 %51, %0
  br i1 %exitcond.not, label %._crit_edge, label %21, !llvm.loop !40

._crit_edge:                                      ; preds = %48, %36, %7
  %.1 = phi i32 [ 0, %7 ], [ %45, %36 ], [ 0, %48 ]
  tail call void @N_VSetArrayPointer(ptr noundef %10, ptr noundef %6) #6
  ret i32 %.1
}